target datalayout = "e-m:e-p270:32:32-p271:32:32-p272:64:64-i64:64-i128:128-f80:128-n8:16:32:64-S128"
target triple = "x86_64-pc-linux-gnu"

%struct.PostingItem = type { %struct.BlockIdData, %struct.ItemPointerData }
%struct.BlockIdData = type { i16, i16 }
%struct.ItemPointerData = type { %struct.BlockIdData, i16 }
%struct.PageHeaderData = type { %struct.PageXLogRecPtr, i16, i16, i16, i16, i16, i16, i32, [0 x %struct.ItemIdData] }
%struct.PageXLogRecPtr = type { i32, i32 }
%struct.ItemIdData = type { i32 }
%struct.GinPageOpaqueData = type { i32, i16, i16 }
%struct.GinBtreeData = type { ptr, ptr, ptr, ptr, ptr, ptr, ptr, ptr, ptr, i8, ptr, i32, ptr, i8, i8, i16, i64, i8, %struct.ItemPointerData }
%struct.GinBtreeStack = type { i32, i32, i16, %struct.ItemPointerData, i32, ptr }

@LocalBufferBlockPointers = external global ptr, align 8
@BufferBlocks = external global ptr, align 8

; Function Attrs: inlinehint nounwind uwtable
define internal i32 @pg_cmp_u64(i64 noundef %0, i64 noundef %1) #2 {
  %3 = alloca i64, align 8
  %4 = alloca i64, align 8
  store i64 %0, ptr %3, align 8
  store i64 %1, ptr %4, align 8
  %5 = load i64, ptr %3, align 8
  %6 = load i64, ptr %4, align 8
  %7 = icmp ugt i64 %5, %6
  %8 = zext i1 %7 to i32
  %9 = load i64, ptr %3, align 8
  %10 = load i64, ptr %4, align 8
  %11 = icmp ult i64 %9, %10
  %12 = zext i1 %11 to i32
  %13 = sub i32 %8, %12
  ret i32 %13
}

; Function Attrs: inlinehint nounwind uwtable
define internal zeroext i16 @ItemPointerGetOffsetNumberNoCheck(ptr noundef %0) #2 {
  %2 = alloca ptr, align 8
  store ptr %0, ptr %2, align 8
  %3 = load ptr, ptr %2, align 8
  %4 = getelementptr inbounds nuw %struct.ItemPointerData, ptr %3, i32 0, i32 1
  %5 = load i16, ptr %4, align 2
  ret i16 %5
}

; Function Attrs: inlinehint nounwind uwtable
define internal i32 @ItemPointerGetBlockNumberNoCheck(ptr noundef %0) #2 {
  %2 = alloca ptr, align 8
  store ptr %0, ptr %2, align 8
  %3 = load ptr, ptr %2, align 8
  %4 = getelementptr inbounds nuw %struct.ItemPointerData, ptr %3, i32 0, i32 0
  %5 = call i32 @BlockIdGetBlockNumber(ptr noundef %4)
  ret i32 %5
}

; Function Attrs: inlinehint nounwind uwtable
define internal ptr @BufferGetBlock(i32 noundef %0) #2 {
  %2 = alloca ptr, align 8
  %3 = alloca i32, align 4
  store i32 %0, ptr %3, align 4
  %4 = load i32, ptr %3, align 4
  %5 = icmp slt i32 %4, 0
  br i1 %5, label %6, label %14

6:                                                ; preds = %1
  %7 = load ptr, ptr @LocalBufferBlockPointers, align 8
  %8 = load i32, ptr %3, align 4
  %9 = sub i32 0, %8
  %10 = sub i32 %9, 1
  %11 = sext i32 %10 to i64
  %12 = getelementptr inbounds ptr, ptr %7, i64 %11
  %13 = load ptr, ptr %12, align 8
  store ptr %13, ptr %2, align 8
  br label %21

14:                                               ; preds = %1
  %15 = load ptr, ptr @BufferBlocks, align 8
  %16 = load i32, ptr %3, align 4
  %17 = sub i32 %16, 1
  %18 = sext i32 %17 to i64
  %19 = mul i64 %18, 8192
  %20 = getelementptr inbounds nuw i8, ptr %15, i64 %19
  store ptr %20, ptr %2, align 8
  br label %21

21:                                               ; preds = %14, %6
  %22 = load ptr, ptr %2, align 8
  ret ptr %22
}

; Function Attrs: inlinehint nounwind uwtable
define internal i32 @BlockIdGetBlockNumber(ptr noundef %0) #2 {
  %2 = alloca ptr, align 8
  store ptr %0, ptr %2, align 8
  %3 = load ptr, ptr %2, align 8
  %4 = getelementptr inbounds nuw %struct.BlockIdData, ptr %3, i32 0, i32 0
  %5 = load i16, ptr %4, align 2
  %6 = zext i16 %5 to i32
  %7 = shl i32 %6, 16
  %8 = load ptr, ptr %2, align 8
  %9 = getelementptr inbounds nuw %struct.BlockIdData, ptr %8, i32 0, i32 1
  %10 = load i16, ptr %9, align 2
  %11 = zext i16 %10 to i32
  %12 = or i32 %7, %11
  ret i32 %12
}

; Function Attrs: inlinehint nounwind uwtable
define internal i32 @ginCompareItemPointers(ptr noundef %0, ptr noundef %1) #2 {
  %3 = alloca ptr, align 8
  %4 = alloca ptr, align 8
  %5 = alloca i64, align 8
  %6 = alloca i64, align 8
  store ptr %0, ptr %3, align 8
  store ptr %1, ptr %4, align 8
  call void @llvm.lifetime.start.p0(i64 8, ptr %5) #7
  %7 = load ptr, ptr %3, align 8
  %8 = call i32 @ItemPointerGetBlockNumberNoCheck(ptr noundef %7)
  %9 = zext i32 %8 to i64
  %10 = shl i64 %9, 32
  %11 = load ptr, ptr %3, align 8
  %12 = call zeroext i16 @ItemPointerGetOffsetNumberNoCheck(ptr noundef %11)
  %13 = zext i16 %12 to i64
  %14 = or i64 %10, %13
  store i64 %14, ptr %5, align 8
  call void @llvm.lifetime.start.p0(i64 8, ptr %6) #7
  %15 = load ptr, ptr %4, align 8
  %16 = call i32 @ItemPointerGetBlockNumberNoCheck(ptr noundef %15)
  %17 = zext i32 %16 to i64
  %18 = shl i64 %17, 32
  %19 = load ptr, ptr %4, align 8
  %20 = call zeroext i16 @ItemPointerGetOffsetNumberNoCheck(ptr noundef %19)
  %21 = zext i16 %20 to i64
  %22 = or i64 %18, %21
  store i64 %22, ptr %6, align 8
  %23 = load i64, ptr %5, align 8
  %24 = load i64, ptr %6, align 8
  %25 = call i32 @pg_cmp_u64(i64 noundef %23, i64 noundef %24)
  call void @llvm.lifetime.end.p0(i64 8, ptr %6) #7
  call void @llvm.lifetime.end.p0(i64 8, ptr %5) #7
  ret i32 %25
}

; Function Attrs: inlinehint nounwind uwtable
define internal ptr @PageGetContents(ptr noundef %0) #2 {
  %2 = alloca ptr, align 8
  store ptr %0, ptr %2, align 8
  %3 = load ptr, ptr %2, align 8
  %4 = getelementptr inbounds nuw i8, ptr %3, i64 24
  ret ptr %4
}

; Function Attrs: inlinehint nounwind uwtable
define internal void @PageValidateSpecialPointer(ptr noundef %0) #2 {
  %2 = alloca ptr, align 8
  store ptr %0, ptr %2, align 8
  ret void
}

; Function Attrs: inlinehint nounwind uwtable
define internal ptr @BufferGetPage(i32 noundef %0) #2 {
  %2 = alloca i32, align 4
  store i32 %0, ptr %2, align 4
  %3 = load i32, ptr %2, align 4
  %4 = call ptr @BufferGetBlock(i32 noundef %3)
  ret ptr %4
}

; Function Attrs: nounwind uwtable
define internal i32 @dataLocateItem(ptr noundef %0, ptr noundef %1) #0 {
  %3 = alloca i32, align 4
  %4 = alloca ptr, align 8
  %5 = alloca ptr, align 8
  %6 = alloca i16, align 2
  %7 = alloca i16, align 2
  %8 = alloca i16, align 2
  %9 = alloca ptr, align 8
  %10 = alloca i32, align 4
  %11 = alloca ptr, align 8
  %12 = alloca i32, align 4
  %13 = alloca i16, align 2
  store ptr %0, ptr %4, align 8
  store ptr %1, ptr %5, align 8
  call void @llvm.lifetime.start.p0(i64 2, ptr %6) #7
  call void @llvm.lifetime.start.p0(i64 2, ptr %7) #7
  call void @llvm.lifetime.start.p0(i64 2, ptr %8) #7
  call void @llvm.lifetime.start.p0(i64 8, ptr %9) #7
  store ptr null, ptr %9, align 8
  call void @llvm.lifetime.start.p0(i64 4, ptr %10) #7
  call void @llvm.lifetime.start.p0(i64 8, ptr %11) #7
  %14 = load ptr, ptr %5, align 8
  %15 = getelementptr inbounds nuw %struct.GinBtreeStack, ptr %14, i32 0, i32 1
  %16 = load i32, ptr %15, align 4
  %17 = call ptr @BufferGetPage(i32 noundef %16)
  store ptr %17, ptr %11, align 8
  %18 = load ptr, ptr %4, align 8
  %19 = getelementptr inbounds nuw %struct.GinBtreeData, ptr %18, i32 0, i32 13
  %20 = load i8, ptr %19, align 8, !range !7, !noundef !8
  %21 = trunc i8 %20 to i1
  br i1 %21, label %22, label %46

22:                                               ; preds = %2
  %23 = load ptr, ptr %5, align 8
  %24 = getelementptr inbounds nuw %struct.GinBtreeStack, ptr %23, i32 0, i32 2
  store i16 1, ptr %24, align 8
  %25 = load ptr, ptr %11, align 8
  call void @PageValidateSpecialPointer(ptr noundef %25)
  %26 = load ptr, ptr %11, align 8
  %27 = load ptr, ptr %11, align 8
  %28 = getelementptr inbounds nuw %struct.PageHeaderData, ptr %27, i32 0, i32 5
  %29 = load i16, ptr %28, align 4
  %30 = zext i16 %29 to i32
  %31 = sext i32 %30 to i64
  %32 = getelementptr inbounds i8, ptr %26, i64 %31
  %33 = getelementptr inbounds nuw %struct.GinPageOpaqueData, ptr %32, i32 0, i32 1
  %34 = load i16, ptr %33, align 4
  %35 = zext i16 %34 to i32
  %36 = load ptr, ptr %5, align 8
  %37 = getelementptr inbounds nuw %struct.GinBtreeStack, ptr %36, i32 0, i32 4
  %38 = load i32, ptr %37, align 8
  %39 = mul i32 %38, %35
  store i32 %39, ptr %37, align 8
  %40 = load ptr, ptr %4, align 8
  %41 = getelementptr inbounds nuw %struct.GinBtreeData, ptr %40, i32 0, i32 1
  %42 = load ptr, ptr %41, align 8
  %43 = load ptr, ptr %4, align 8
  %44 = load ptr, ptr %11, align 8
  %45 = call i32 %42(ptr noundef %43, ptr noundef %44)
  store i32 %45, ptr %3, align 4
  store i32 1, ptr %12, align 4
  br label %147

46:                                               ; preds = %2
  store i16 1, ptr %6, align 2
  %47 = load ptr, ptr %11, align 8
  call void @PageValidateSpecialPointer(ptr noundef %47)
  %48 = load ptr, ptr %11, align 8
  %49 = load ptr, ptr %11, align 8
  %50 = getelementptr inbounds nuw %struct.PageHeaderData, ptr %49, i32 0, i32 5
  %51 = load i16, ptr %50, align 4
  %52 = zext i16 %51 to i32
  %53 = sext i32 %52 to i64
  %54 = getelementptr inbounds i8, ptr %48, i64 %53
  %55 = getelementptr inbounds nuw %struct.GinPageOpaqueData, ptr %54, i32 0, i32 1
  %56 = load i16, ptr %55, align 4
  store i16 %56, ptr %7, align 2
  store i16 %56, ptr %8, align 2
  %57 = load i16, ptr %7, align 2
  %58 = add i16 %57, 1
  store i16 %58, ptr %7, align 2
  br label %59

59:                                               ; preds = %130, %46
  %60 = load i16, ptr %7, align 2
  %61 = zext i16 %60 to i32
  %62 = load i16, ptr %6, align 2
  %63 = zext i16 %62 to i32
  %64 = icmp sgt i32 %61, %63
  br i1 %64, label %65, label %131

65:                                               ; preds = %59
  call void @llvm.lifetime.start.p0(i64 2, ptr %13) #7
  %66 = load i16, ptr %6, align 2
  %67 = zext i16 %66 to i32
  %68 = load i16, ptr %7, align 2
  %69 = zext i16 %68 to i32
  %70 = load i16, ptr %6, align 2
  %71 = zext i16 %70 to i32
  %72 = sub i32 %69, %71
  %73 = sdiv i32 %72, 2
  %74 = add i32 %67, %73
  %75 = trunc i32 %74 to i16
  store i16 %75, ptr %13, align 2
  %76 = load ptr, ptr %11, align 8
  %77 = call ptr @PageGetContents(ptr noundef %76)
  %78 = getelementptr inbounds nuw i8, ptr %77, i64 8
  %79 = load i16, ptr %13, align 2
  %80 = zext i16 %79 to i32
  %81 = sub i32 %80, 1
  %82 = sext i32 %81 to i64
  %83 = mul i64 %82, 10
  %84 = getelementptr inbounds nuw i8, ptr %78, i64 %83
  store ptr %84, ptr %9, align 8
  %85 = load i16, ptr %13, align 2
  %86 = zext i16 %85 to i32
  %87 = load i16, ptr %8, align 2
  %88 = zext i16 %87 to i32
  %89 = icmp eq i32 %86, %88
  br i1 %89, label %90, label %91

90:                                               ; preds = %65
  store i32 -1, ptr %10, align 4
  br label %106

91:                                               ; preds = %65
  %92 = load ptr, ptr %11, align 8
  %93 = call ptr @PageGetContents(ptr noundef %92)
  %94 = getelementptr inbounds nuw i8, ptr %93, i64 8
  %95 = load i16, ptr %13, align 2
  %96 = zext i16 %95 to i32
  %97 = sub i32 %96, 1
  %98 = sext i32 %97 to i64
  %99 = mul i64 %98, 10
  %100 = getelementptr inbounds nuw i8, ptr %94, i64 %99
  store ptr %100, ptr %9, align 8
  %101 = load ptr, ptr %4, align 8
  %102 = getelementptr inbounds nuw %struct.GinBtreeData, ptr %101, i32 0, i32 18
  %103 = load ptr, ptr %9, align 8
  %104 = getelementptr inbounds nuw %struct.PostingItem, ptr %103, i32 0, i32 1
  %105 = call i32 @ginCompareItemPointers(ptr noundef %102, ptr noundef %104)
  store i32 %105, ptr %10, align 4
  br label %106

106:                                              ; preds = %91, %90
  %107 = load i32, ptr %10, align 4
  %108 = icmp eq i32 %107, 0
  br i1 %108, label %109, label %116

109:                                              ; preds = %106
  %110 = load i16, ptr %13, align 2
  %111 = load ptr, ptr %5, align 8
  %112 = getelementptr inbounds nuw %struct.GinBtreeStack, ptr %111, i32 0, i32 2
  store i16 %110, ptr %112, align 8
  %113 = load ptr, ptr %9, align 8
  %114 = getelementptr inbounds nuw %struct.PostingItem, ptr %113, i32 0, i32 0
  %115 = call i32 @BlockIdGetBlockNumber(ptr noundef %114)
  store i32 %115, ptr %3, align 4
  store i32 1, ptr %12, align 4
  br label %128

116:                                              ; preds = %106
  %117 = load i32, ptr %10, align 4
  %118 = icmp sgt i32 %117, 0
  br i1 %118, label %119, label %124

119:                                              ; preds = %116
  %120 = load i16, ptr %13, align 2
  %121 = zext i16 %120 to i32
  %122 = add i32 %121, 1
  %123 = trunc i32 %122 to i16
  store i16 %123, ptr %6, align 2
  br label %126

124:                                              ; preds = %116
  %125 = load i16, ptr %13, align 2
  store i16 %125, ptr %7, align 2
  br label %126

126:                                              ; preds = %124, %119
  br label %127

127:                                              ; preds = %126
  store i32 0, ptr %12, align 4
  br label %128

128:                                              ; preds = %127, %109
  call void @llvm.lifetime.end.p0(i64 2, ptr %13) #7
  %129 = load i32, ptr %12, align 4
  switch i32 %129, label %147 [
    i32 0, label %130
  ]

130:                                              ; preds = %128
  br label %59, !llvm.loop !16

131:                                              ; preds = %59
  %132 = load i16, ptr %7, align 2
  %133 = load ptr, ptr %5, align 8
  %134 = getelementptr inbounds nuw %struct.GinBtreeStack, ptr %133, i32 0, i32 2
  store i16 %132, ptr %134, align 8
  %135 = load ptr, ptr %11, align 8
  %136 = call ptr @PageGetContents(ptr noundef %135)
  %137 = getelementptr inbounds nuw i8, ptr %136, i64 8
  %138 = load i16, ptr %7, align 2
  %139 = zext i16 %138 to i32
  %140 = sub i32 %139, 1
  %141 = sext i32 %140 to i64
  %142 = mul i64 %141, 10
  %143 = getelementptr inbounds nuw i8, ptr %137, i64 %142
  store ptr %143, ptr %9, align 8
  %144 = load ptr, ptr %9, align 8
  %145 = getelementptr inbounds nuw %struct.PostingItem, ptr %144, i32 0, i32 0
  %146 = call i32 @BlockIdGetBlockNumber(ptr noundef %145)
  store i32 %146, ptr %3, align 4
  store i32 1, ptr %12, align 4
  br label %147

147:                                              ; preds = %131, %128, %22
  call void @llvm.lifetime.end.p0(i64 8, ptr %11) #7
  call void @llvm.lifetime.end.p0(i64 4, ptr %10) #7
  call void @llvm.lifetime.end.p0(i64 8, ptr %9) #7
  call void @llvm.lifetime.end.p0(i64 2, ptr %8) #7
  call void @llvm.lifetime.end.p0(i64 2, ptr %7) #7
  call void @llvm.lifetime.end.p0(i64 2, ptr %6) #7
  %148 = load i32, ptr %3, align 4
  ret i32 %148
}