; Function Attrs: nounwind uwtable
define internal i32 @dataLocateItem(ptr noundef %0, ptr noundef captures(none) %1) #0 {
  %3 = getelementptr inbounds nuw i8, ptr %1, i64 4
  %4 = load i32, ptr %3, align 4
  %5 = icmp slt i32 %4, 0
  br i1 %5, label %6, label %12

6:                                                ; preds = %2
  %7 = load ptr, ptr @LocalBufferBlockPointers, align 8
  %8 = xor i32 %4, -1
  %9 = zext nneg i32 %8 to i64
  %10 = getelementptr inbounds nuw ptr, ptr %7, i64 %9
  %11 = load ptr, ptr %10, align 8
  br label %BufferGetPage.exit

12:                                               ; preds = %2
  %13 = load ptr, ptr @BufferBlocks, align 8
  %14 = add nsw i32 %4, -1
  %15 = sext i32 %14 to i64
  %16 = shl nsw i64 %15, 13
  %17 = getelementptr inbounds nuw i8, ptr %13, i64 %16
  br label %BufferGetPage.exit

BufferGetPage.exit:                               ; preds = %6, %12
  %.0.i.i = phi ptr [ %11, %6 ], [ %17, %12 ]
  %18 = getelementptr inbounds nuw i8, ptr %0, i64 104
  %19 = load i8, ptr %18, align 8, !range !13, !noundef !14
  %20 = trunc nuw i8 %19 to i1
  br i1 %20, label %21, label %36

21:                                               ; preds = %BufferGetPage.exit
  %22 = getelementptr inbounds nuw i8, ptr %1, i64 8
  store i16 1, ptr %22, align 8
  %23 = getelementptr inbounds nuw i8, ptr %.0.i.i, i64 16
  %24 = load i16, ptr %23, align 4
  %25 = zext i16 %24 to i64
  %26 = getelementptr inbounds nuw i8, ptr %.0.i.i, i64 %25
  %27 = getelementptr inbounds nuw i8, ptr %26, i64 4
  %28 = load i16, ptr %27, align 4
  %29 = zext i16 %28 to i32
  %30 = getelementptr inbounds nuw i8, ptr %1, i64 16
  %31 = load i32, ptr %30, align 8
  %32 = mul i32 %31, %29
  store i32 %32, ptr %30, align 8
  %33 = getelementptr inbounds nuw i8, ptr %0, i64 8
  %34 = load ptr, ptr %33, align 8
  %35 = tail call i32 %34(ptr noundef nonnull %0, ptr noundef %.0.i.i) #11
  br label %96

36:                                               ; preds = %BufferGetPage.exit
  %37 = getelementptr inbounds nuw i8, ptr %.0.i.i, i64 16
  %38 = load i16, ptr %37, align 4
  %39 = zext i16 %38 to i64
  %40 = getelementptr inbounds nuw i8, ptr %.0.i.i, i64 %39
  %41 = getelementptr inbounds nuw i8, ptr %40, i64 4
  %42 = load i16, ptr %41, align 4
  %43 = add i16 %42, 1
  %44 = icmp ugt i16 %43, 1
  br i1 %44, label %.lr.ph, label %._crit_edge

.lr.ph:                                           ; preds = %36
  %45 = getelementptr i8, ptr %.0.i.i, i64 22
  %46 = getelementptr inbounds nuw i8, ptr %0, i64 122
  %47 = getelementptr i8, ptr %0, i64 124
  %48 = getelementptr i8, ptr %0, i64 126
  br label %49

49:                                               ; preds = %.lr.ph, %.thread76
  %.04169 = phi i16 [ 1, %.lr.ph ], [ %83, %.thread76 ]
  %.04668 = phi i16 [ %43, %.lr.ph ], [ %82, %.thread76 ]
  %narrow = sub nuw i16 %.04668, %.04169
  %50 = lshr i16 %narrow, 1
  %51 = add i16 %50, %.04169
  %52 = icmp eq i16 %51, %42
  br i1 %52, label %.thread76, label %53

53:                                               ; preds = %49
  %54 = zext i16 %51 to i64
  %55 = mul nuw nsw i64 %54, 10
  %56 = getelementptr i8, ptr %45, i64 %55
  %57 = getelementptr inbounds nuw i8, ptr %56, i64 4
  %.val.i = load i16, ptr %46, align 2
  %.val5.i = load i16, ptr %47, align 2
  %58 = zext i16 %.val.i to i64
  %59 = zext i16 %.val5.i to i64
  %60 = shl nuw i64 %58, 48
  %61 = shl nuw nsw i64 %59, 32
  %62 = or disjoint i64 %61, %60
  %.val8.i = load i16, ptr %48, align 2
  %63 = zext i16 %.val8.i to i64
  %64 = or disjoint i64 %62, %63
  %.val6.i = load i16, ptr %57, align 2
  %65 = getelementptr i8, ptr %56, i64 6
  %.val7.i = load i16, ptr %65, align 2
  %66 = zext i16 %.val6.i to i64
  %67 = zext i16 %.val7.i to i64
  %68 = shl nuw i64 %66, 48
  %69 = shl nuw nsw i64 %67, 32
  %70 = or disjoint i64 %69, %68
  %71 = getelementptr i8, ptr %56, i64 8
  %.val9.i = load i16, ptr %71, align 2
  %72 = zext i16 %.val9.i to i64
  %73 = or disjoint i64 %70, %72
  %.not = icmp eq i64 %64, %73
  br i1 %.not, label %.thread61, label %.thread

.thread61:                                        ; preds = %53
  %74 = getelementptr inbounds nuw i8, ptr %1, i64 8
  store i16 %51, ptr %74, align 8
  %.045.val = load i16, ptr %56, align 2
  %75 = getelementptr i8, ptr %56, i64 2
  %.045.val54 = load i16, ptr %75, align 2
  %76 = zext i16 %.045.val to i32
  %77 = shl nuw i32 %76, 16
  %78 = zext i16 %.045.val54 to i32
  %79 = or disjoint i32 %77, %78
  br label %96

.thread:                                          ; preds = %53
  %80 = icmp ugt i64 %64, %73
  %cond.fr = freeze i1 %80
  %81 = add i16 %51, 1
  %spec.select = select i1 %cond.fr, i16 %.04668, i16 %51
  %spec.select86 = select i1 %cond.fr, i16 %81, i16 %.04169
  br label %.thread76

.thread76:                                        ; preds = %.thread, %49
  %82 = phi i16 [ %51, %49 ], [ %spec.select, %.thread ]
  %83 = phi i16 [ %.04169, %49 ], [ %spec.select86, %.thread ]
  %84 = icmp ugt i16 %82, %83
  br i1 %84, label %49, label %._crit_edge

._crit_edge:                                      ; preds = %.thread76, %36
  %.046.lcssa = phi i16 [ %43, %36 ], [ %82, %.thread76 ]
  %85 = zext i16 %.046.lcssa to i64
  %86 = getelementptr inbounds nuw i8, ptr %1, i64 8
  store i16 %.046.lcssa, ptr %86, align 8
  %87 = getelementptr inbounds nuw i8, ptr %.0.i.i, i64 32
  %88 = mul nuw nsw i64 %85, 10
  %89 = getelementptr i8, ptr %87, i64 %88
  %90 = getelementptr i8, ptr %89, i64 -10
  %.val = load i16, ptr %90, align 2
  %91 = getelementptr i8, ptr %89, i64 -8
  %.val53 = load i16, ptr %91, align 2
  %92 = zext i16 %.val to i32
  %93 = shl nuw i32 %92, 16
  %94 = zext i16 %.val53 to i32
  %95 = or disjoint i32 %93, %94
  br label %96

96:                                               ; preds = %.thread61, %._crit_edge, %21
  %.0 = phi i32 [ %35, %21 ], [ %95, %._crit_edge ], [ %79, %.thread61 ]
  ret i32 %.0
}